; Function Attrs: nounwind uwtable
define noundef ptr @dtgtk_thumbnail_btn_new(ptr noundef %0, i32 noundef %1, ptr noundef %2) local_unnamed_addr #0 {
  %4 = load atomic i64, ptr @dtgtk_thumbnail_btn_get_type.static_g_define_type_id seq_cst, align 8
  %.not.i = icmp eq i64 %4, 0
  br i1 %.not.i, label %5, label %dtgtk_thumbnail_btn_get_type.exit

5:                                                ; preds = %3
  %6 = tail call i32 @g_once_init_enter(ptr noundef nonnull @dtgtk_thumbnail_btn_get_type.static_g_define_type_id) #7
  %.not4.i = icmp eq i32 %6, 0
  br i1 %.not4.i, label %dtgtk_thumbnail_btn_get_type.exit, label %7

7:                                                ; preds = %5
  %8 = tail call fastcc i64 @dtgtk_thumbnail_btn_get_type_once()
  tail call void @g_once_init_leave(ptr noundef nonnull @dtgtk_thumbnail_btn_get_type.static_g_define_type_id, i64 noundef %8) #7
  br label %dtgtk_thumbnail_btn_get_type.exit

dtgtk_thumbnail_btn_get_type.exit:                ; preds = %3, %5, %7
  %9 = load i64, ptr @dtgtk_thumbnail_btn_get_type.static_g_define_type_id, align 8, !tbaa !6
  %10 = tail call ptr (i64, ptr, ...) @g_object_new(i64 noundef %9, ptr noundef null) #7
  %11 = tail call i64 @gtk_widget_get_type() #8
  %12 = tail call ptr @g_type_check_instance_cast(ptr noundef %10, i64 noundef %11) #7
  tail call void @dt_gui_add_class(ptr noundef %12, ptr noundef nonnull @.str) #7
  %13 = getelementptr inbounds nuw i8, ptr %10, i64 40
  store ptr %0, ptr %13, align 8, !tbaa !10
  %14 = getelementptr inbounds nuw i8, ptr %10, i64 48
  store i32 %1, ptr %14, align 8, !tbaa !21
  %15 = getelementptr inbounds nuw i8, ptr %10, i64 56
  store ptr %2, ptr %15, align 8, !tbaa !22
  %16 = tail call ptr @g_type_check_instance_cast(ptr noundef %10, i64 noundef %11) #7
  tail call void @gtk_widget_set_events(ptr noundef %16, i32 noundef 67108862) #7
  %17 = tail call ptr @g_type_check_instance_cast(ptr noundef %10, i64 noundef %11) #7
  tail call void @gtk_widget_set_app_paintable(ptr noundef %17, i32 noundef 1) #7
  %18 = tail call ptr @g_type_check_instance_cast(ptr noundef %10, i64 noundef %11) #7
  tail call void @gtk_widget_set_name(ptr noundef %18, ptr noundef nonnull @.str.1) #7
  ret ptr %10
}